target datalayout = "e-m:e-p270:32:32-p271:32:32-p272:64:64-i64:64-i128:128-f80:128-n8:16:32:64-S128"
target triple = "x86_64-unknown-linux-gnu"

%"class.icu_75::UObject" = type { ptr }
%"class.icu_75::CollationBuilder" = type { %"class.icu_75::CollationRuleParser::Sink", ptr, ptr, ptr, ptr, ptr, %"class.icu_75::CollationRootElements", i32, ptr, i8, i8, [6 x i8], %"class.icu_75::UnicodeSet", ptr, [31 x i64], i32, %"class.icu_75::UVector32", %"class.icu_75::UVector64" }
%"class.icu_75::CollationRuleParser::Sink" = type { %"class.icu_75::UObject" }
%"class.icu_75::CollationRootElements" = type <{ ptr, i32, [4 x i8] }>
%"class.icu_75::UnicodeSet" = type <{ %"class.icu_75::UnicodeFilter", ptr, i32, i32, i8, [7 x i8], ptr, ptr, i32, [4 x i8], ptr, i32, [4 x i8], ptr, ptr, [25 x i32], [4 x i8] }>
%"class.icu_75::UnicodeFilter" = type { %"class.icu_75::UnicodeFunctor", %"class.icu_75::UnicodeMatcher" }
%"class.icu_75::UnicodeFunctor" = type { %"class.icu_75::UObject" }
%"class.icu_75::UnicodeMatcher" = type { ptr }
%"class.icu_75::UVector32" = type { %"class.icu_75::UObject", i32, i32, i32, ptr }
%"class.icu_75::UVector64" = type { %"class.icu_75::UObject", i32, i32, i32, ptr }

@.str.26 = private unnamed_addr constant [51 x i8] c"application of [suppressContractions [set]] failed\00", align 1

; Function Attrs: mustprogress nounwind uwtable
define internal noundef signext i8 @_ZL9U_FAILURE10UErrorCode(i32 noundef %code) #3 {
entry:
  %code.addr = alloca i32, align 4
  store i32 %code, ptr %code.addr, align 4
  %0 = load i32, ptr %code.addr, align 4
  %cmp = icmp sgt i32 %0, 0
  %conv = zext i1 %cmp to i8
  ret i8 %conv
}

; Function Attrs: mustprogress uwtable
define void @_ZN6icu_7516CollationBuilder20suppressContractionsERKNS_10UnicodeSetERPKcR10UErrorCode(ptr noundef nonnull align 8 dereferenceable(616) %this, ptr noundef nonnull align 8 dereferenceable(200) %set, ptr noundef nonnull align 8 dereferenceable(8) %parserErrorReason, ptr noundef nonnull align 4 dereferenceable(4) %errorCode) unnamed_addr #0 align 2 {
entry:
  %this.addr = alloca ptr, align 8
  %set.addr = alloca ptr, align 8
  %parserErrorReason.addr = alloca ptr, align 8
  %errorCode.addr = alloca ptr, align 8
  store ptr %this, ptr %this.addr, align 8
  store ptr %set, ptr %set.addr, align 8
  store ptr %parserErrorReason, ptr %parserErrorReason.addr, align 8
  store ptr %errorCode, ptr %errorCode.addr, align 8
  %this1 = load ptr, ptr %this.addr, align 8
  %0 = load ptr, ptr %errorCode.addr, align 8
  %1 = load i32, ptr %0, align 4
  %call = call noundef signext i8 @_ZL9U_FAILURE10UErrorCode(i32 noundef %1)
  %tobool = icmp ne i8 %call, 0
  br i1 %tobool, label %if.then, label %if.end

if.then:                                          ; preds = %entry
  br label %if.end5

if.end:                                           ; preds = %entry
  %dataBuilder = getelementptr inbounds %"class.icu_75::CollationBuilder", ptr %this1, i32 0, i32 8
  %2 = load ptr, ptr %dataBuilder, align 8
  %3 = load ptr, ptr %set.addr, align 8
  %4 = load ptr, ptr %errorCode.addr, align 8
  call void @_ZN6icu_7520CollationDataBuilder20suppressContractionsERKNS_10UnicodeSetER10UErrorCode(ptr noundef nonnull align 8 dereferenceable(640) %2, ptr noundef nonnull align 8 dereferenceable(200) %3, ptr noundef nonnull align 4 dereferenceable(4) %4)
  %5 = load ptr, ptr %errorCode.addr, align 8
  %6 = load i32, ptr %5, align 4
  %call2 = call noundef signext i8 @_ZL9U_FAILURE10UErrorCode(i32 noundef %6)
  %tobool3 = icmp ne i8 %call2, 0
  br i1 %tobool3, label %if.then4, label %if.end5

if.then4:                                         ; preds = %if.end
  %7 = load ptr, ptr %parserErrorReason.addr, align 8
  store ptr @.str.26, ptr %7, align 8
  br label %if.end5

if.end5:                                          ; preds = %if.then4, %if.end, %if.then
  ret void
}