; Function Attrs: mustprogress uwtable
define void @_ZN6icu_7516CollationBuilder20suppressContractionsERKNS_10UnicodeSetERPKcR10UErrorCode(ptr nocapture noundef nonnull readonly align 8 dereferenceable(616) %this, ptr noundef nonnull align 8 dereferenceable(200) %set, ptr nocapture noundef nonnull writeonly align 8 dereferenceable(8) %parserErrorReason, ptr noundef nonnull align 4 dereferenceable(4) %errorCode) unnamed_addr #0 align 2 {
entry:
  %0 = load i32, ptr %errorCode, align 4
  %cmp.i = icmp slt i32 %0, 1
  br i1 %cmp.i, label %if.end, label %if.end5

if.end:                                           ; preds = %entry
  %dataBuilder = getelementptr inbounds i8, ptr %this, i64 72
  %1 = load ptr, ptr %dataBuilder, align 8
  tail call void @_ZN6icu_7520CollationDataBuilder20suppressContractionsERKNS_10UnicodeSetER10UErrorCode(ptr noundef nonnull align 8 dereferenceable(640) %1, ptr noundef nonnull align 8 dereferenceable(200) %set, ptr noundef nonnull align 4 dereferenceable(4) %errorCode)
  %2 = load i32, ptr %errorCode, align 4
  %cmp.i3 = icmp slt i32 %2, 1
  br i1 %cmp.i3, label %if.end5, label %if.then4

if.then4:                                         ; preds = %if.end
  store ptr @.str.26, ptr %parserErrorReason, align 8
  br label %if.end5

if.end5:                                          ; preds = %entry, %if.then4, %if.end
  ret void
}